target datalayout = "e-m:e-p270:32:32-p271:32:32-p272:64:64-i64:64-i128:128-f80:128-n8:16:32:64-S128"
target triple = "x86_64-pc-linux-gnu"

%"struct.duckdb_libpgquery::yyguts_t" = type { ptr, ptr, ptr, i64, i64, ptr, i8, i64, i64, ptr, i32, i32, i32, i32, i32, ptr, i32, ptr, i32, i32, ptr, i32, i32, ptr, ptr }
%"struct.duckdb_libpgquery::yy_buffer_state" = type { ptr, ptr, ptr, i64, i64, i32, i32, i32, i32, i32, i32, i32 }

; Function Attrs: mustprogress uwtable
define hidden void @_ZN17duckdb_libpgquery11core_yyfreeEPvS0_(ptr noundef %0, ptr noundef %1) #0 {
  %3 = alloca ptr, align 8
  %4 = alloca ptr, align 8
  store ptr %0, ptr %3, align 8, !tbaa !10
  store ptr %1, ptr %4, align 8, !tbaa !10
  %5 = load ptr, ptr %3, align 8, !tbaa !10
  %6 = icmp ne ptr %5, null
  br i1 %6, label %7, label %9

7:                                                ; preds = %2
  %8 = load ptr, ptr %3, align 8, !tbaa !10
  call void @_ZN17duckdb_libpgquery5pfreeEPv(ptr noundef %8)
  br label %9

9:                                                ; preds = %7, %2
  ret void
}

; Function Attrs: mustprogress uwtable
define hidden void @_ZN17duckdb_libpgquery21core_yy_delete_bufferEPNS_15yy_buffer_stateEPv(ptr noundef %0, ptr noundef %1) #0 {
  %3 = alloca ptr, align 8
  %4 = alloca ptr, align 8
  %5 = alloca ptr, align 8
  %6 = alloca i32, align 4
  store ptr %0, ptr %3, align 8, !tbaa !26
  store ptr %1, ptr %4, align 8, !tbaa !10
  call void @llvm.lifetime.start.p0(i64 8, ptr %5) #11
  %7 = load ptr, ptr %4, align 8, !tbaa !10
  store ptr %7, ptr %5, align 8, !tbaa !11
  %8 = load ptr, ptr %3, align 8, !tbaa !26
  %9 = icmp ne ptr %8, null
  br i1 %9, label %11, label %10

10:                                               ; preds = %2
  store i32 1, ptr %6, align 4
  br label %51

11:                                               ; preds = %2
  %12 = load ptr, ptr %3, align 8, !tbaa !26
  %13 = load ptr, ptr %5, align 8, !tbaa !11
  %14 = getelementptr inbounds nuw %"struct.duckdb_libpgquery::yyguts_t", ptr %13, i32 0, i32 5
  %15 = load ptr, ptr %14, align 8, !tbaa !24
  %16 = icmp ne ptr %15, null
  br i1 %16, label %17, label %26

17:                                               ; preds = %11
  %18 = load ptr, ptr %5, align 8, !tbaa !11
  %19 = getelementptr inbounds nuw %"struct.duckdb_libpgquery::yyguts_t", ptr %18, i32 0, i32 5
  %20 = load ptr, ptr %19, align 8, !tbaa !24
  %21 = load ptr, ptr %5, align 8, !tbaa !11
  %22 = getelementptr inbounds nuw %"struct.duckdb_libpgquery::yyguts_t", ptr %21, i32 0, i32 3
  %23 = load i64, ptr %22, align 8, !tbaa !25
  %24 = getelementptr inbounds nuw ptr, ptr %20, i64 %23
  %25 = load ptr, ptr %24, align 8, !tbaa !26
  br label %27

26:                                               ; preds = %11
  br label %27

27:                                               ; preds = %26, %17
  %28 = phi ptr [ %25, %17 ], [ null, %26 ]
  %29 = icmp eq ptr %12, %28
  br i1 %29, label %30, label %38

30:                                               ; preds = %27
  %31 = load ptr, ptr %5, align 8, !tbaa !11
  %32 = getelementptr inbounds nuw %"struct.duckdb_libpgquery::yyguts_t", ptr %31, i32 0, i32 5
  %33 = load ptr, ptr %32, align 8, !tbaa !24
  %34 = load ptr, ptr %5, align 8, !tbaa !11
  %35 = getelementptr inbounds nuw %"struct.duckdb_libpgquery::yyguts_t", ptr %34, i32 0, i32 3
  %36 = load i64, ptr %35, align 8, !tbaa !25
  %37 = getelementptr inbounds nuw ptr, ptr %33, i64 %36
  store ptr null, ptr %37, align 8, !tbaa !26
  br label %38

38:                                               ; preds = %30, %27
  %39 = load ptr, ptr %3, align 8, !tbaa !26
  %40 = getelementptr inbounds nuw %"struct.duckdb_libpgquery::yy_buffer_state", ptr %39, i32 0, i32 5
  %41 = load i32, ptr %40, align 8, !tbaa !78
  %42 = icmp ne i32 %41, 0
  br i1 %42, label %43, label %48

43:                                               ; preds = %38
  %44 = load ptr, ptr %3, align 8, !tbaa !26
  %45 = getelementptr inbounds nuw %"struct.duckdb_libpgquery::yy_buffer_state", ptr %44, i32 0, i32 1
  %46 = load ptr, ptr %45, align 8, !tbaa !71
  %47 = load ptr, ptr %4, align 8, !tbaa !10
  call void @_ZN17duckdb_libpgquery11core_yyfreeEPvS0_(ptr noundef %46, ptr noundef %47)
  br label %48

48:                                               ; preds = %43, %38
  %49 = load ptr, ptr %3, align 8, !tbaa !26
  %50 = load ptr, ptr %4, align 8, !tbaa !10
  call void @_ZN17duckdb_libpgquery11core_yyfreeEPvS0_(ptr noundef %49, ptr noundef %50)
  store i32 0, ptr %6, align 4
  br label %51

51:                                               ; preds = %48, %10
  call void @llvm.lifetime.end.p0(i64 8, ptr %5) #11
  %52 = load i32, ptr %6, align 4
  switch i32 %52, label %54 [
    i32 0, label %53
    i32 1, label %53
  ]

53:                                               ; preds = %51, %51
  ret void

54:                                               ; preds = %51
  unreachable
}